target datalayout = "e-m:e-p270:32:32-p271:32:32-p272:64:64-i64:64-i128:128-f80:128-n8:16:32:64-S128"
target triple = "x86_64-pc-linux-gnu"

%struct.darktable_t = type { %struct.dt_codepath_t, i32, i32, ptr, ptr, ptr, ptr, ptr, ptr, ptr, ptr, ptr, ptr, ptr, ptr, ptr, ptr, ptr, ptr, ptr, ptr, ptr, ptr, ptr, ptr, ptr, ptr, ptr, ptr, ptr, [64 x %struct.dt_pthread_mutex_t], %struct.dt_pthread_mutex_t, %struct.dt_pthread_mutex_t, %struct.dt_pthread_mutex_t, %struct.dt_pthread_mutex_t, %struct.dt_pthread_mutex_t, ptr, ptr, ptr, ptr, ptr, ptr, ptr, ptr, ptr, ptr, ptr, ptr, ptr, %struct.dt_lua_state_t, ptr, double, ptr, i32, [47 x i32], i32, i32, ptr, ptr, %struct.dt_sys_resources_t, %struct.dt_backthumb_t, %struct.dt_gimp_t }
%struct.dt_codepath_t = type { i8, [3 x i8] }
%struct.dt_pthread_mutex_t = type { %union.pthread_mutex_t }
%union.pthread_mutex_t = type { %struct.__pthread_mutex_s }
%struct.__pthread_mutex_s = type { i32, i32, i32, i32, i32, i16, i16, %struct.__pthread_internal_list }
%struct.__pthread_internal_list = type { ptr, ptr }
%struct.dt_lua_state_t = type { i32 }
%struct.dt_sys_resources_t = type { i64, i64, ptr, ptr, i32 }
%struct.dt_backthumb_t = type { double, double, i32, i32, i32, i32 }
%struct.dt_gimp_t = type { i32, ptr, ptr, i32, i32 }
%struct.dt_database_t = type { i32, ptr, ptr, ptr, ptr, ptr, ptr, ptr, i32 }

@darktable = external global %struct.darktable_t, align 8
@.str.82 = private unnamed_addr constant [65 x i8] c"[db busy stmt] non-finalized nor stepped through statement: '%s'\00", align 1
@.str.83 = private unnamed_addr constant [45 x i8] c"[db busy stmt] non-finalized statement: '%s'\00", align 1

; Function Attrs: nounwind uwtable
define void @dt_database_cleanup_busy_statements(ptr noundef %0) #0 {
  %2 = alloca ptr, align 8
  %3 = alloca ptr, align 8
  %4 = alloca ptr, align 8
  store ptr %0, ptr %2, align 8, !tbaa !6
  call void @llvm.lifetime.start.p0(i64 8, ptr %3) #13
  store ptr null, ptr %3, align 8, !tbaa !64
  br label %5

5:                                                ; preds = %49, %1
  %6 = load ptr, ptr %2, align 8, !tbaa !6
  %7 = getelementptr inbounds nuw %struct.dt_database_t, ptr %6, i32 0, i32 5
  %8 = load ptr, ptr %7, align 8, !tbaa !11
  %9 = call ptr @sqlite3_next_stmt(ptr noundef %8, ptr noundef null)
  store ptr %9, ptr %3, align 8, !tbaa !64
  %10 = icmp ne ptr %9, null
  br i1 %10, label %11, label %52

11:                                               ; preds = %5
  call void @llvm.lifetime.start.p0(i64 8, ptr %4) #13
  %12 = load ptr, ptr %3, align 8, !tbaa !64
  %13 = call ptr @sqlite3_sql(ptr noundef %12)
  store ptr %13, ptr %4, align 8, !tbaa !18
  %14 = load ptr, ptr %3, align 8, !tbaa !64
  %15 = call i32 @sqlite3_stmt_busy(ptr noundef %14)
  %16 = icmp ne i32 %15, 0
  br i1 %16, label %17, label %34

17:                                               ; preds = %11
  br label %18

18:                                               ; preds = %17
  %19 = load i32, ptr getelementptr inbounds nuw (%struct.darktable_t, ptr @darktable, i32 0, i32 2), align 8, !tbaa !27
  %20 = and i32 256, %19
  %21 = icmp ne i32 %20, 0
  br i1 %21, label %22, label %29

22:                                               ; preds = %18
  %23 = load i32, ptr getelementptr inbounds nuw (%struct.darktable_t, ptr @darktable, i32 0, i32 2), align 8, !tbaa !27
  %24 = xor i32 %23, -1
  %25 = and i32 0, %24
  %26 = icmp ne i32 %25, 0
  br i1 %26, label %29, label %27

27:                                               ; preds = %22
  %28 = load ptr, ptr %4, align 8, !tbaa !18
  call void (ptr, ...) @dt_print_ext(ptr noundef @.str.82, ptr noundef %28)
  br label %29

29:                                               ; preds = %27, %22, %18
  br label %30

30:                                               ; preds = %29
  br label %31

31:                                               ; preds = %30
  %32 = load ptr, ptr %3, align 8, !tbaa !64
  %33 = call i32 @sqlite3_reset(ptr noundef %32)
  br label %49

34:                                               ; preds = %11
  br label %35

35:                                               ; preds = %34
  %36 = load i32, ptr getelementptr inbounds nuw (%struct.darktable_t, ptr @darktable, i32 0, i32 2), align 8, !tbaa !27
  %37 = and i32 256, %36
  %38 = icmp ne i32 %37, 0
  br i1 %38, label %39, label %46

39:                                               ; preds = %35
  %40 = load i32, ptr getelementptr inbounds nuw (%struct.darktable_t, ptr @darktable, i32 0, i32 2), align 8, !tbaa !27
  %41 = xor i32 %40, -1
  %42 = and i32 0, %41
  %43 = icmp ne i32 %42, 0
  br i1 %43, label %46, label %44

44:                                               ; preds = %39
  %45 = load ptr, ptr %4, align 8, !tbaa !18
  call void (ptr, ...) @dt_print_ext(ptr noundef @.str.83, ptr noundef %45)
  br label %46

46:                                               ; preds = %44, %39, %35
  br label %47

47:                                               ; preds = %46
  br label %48

48:                                               ; preds = %47
  br label %49

49:                                               ; preds = %48, %31
  %50 = load ptr, ptr %3, align 8, !tbaa !64
  %51 = call i32 @sqlite3_finalize(ptr noundef %50)
  call void @llvm.lifetime.end.p0(i64 8, ptr %4) #13
  br label %5

52:                                               ; preds = %5
  call void @llvm.lifetime.end.p0(i64 8, ptr %3) #13
  ret void
}