; Function Attrs: nounwind uwtable
define void @dt_database_cleanup_busy_statements(ptr noundef readonly captures(none) %0) local_unnamed_addr #0 {
  %2 = getelementptr inbounds nuw i8, ptr %0, i64 40
  %3 = load ptr, ptr %2, align 8, !tbaa !6
  %4 = tail call ptr @sqlite3_next_stmt(ptr noundef %3, ptr noundef null) #18
  %.not10 = icmp eq ptr %4, null
  br i1 %.not10, label %._crit_edge, label %.lr.ph

.lr.ph:                                           ; preds = %1, %16
  %5 = phi ptr [ %19, %16 ], [ %4, %1 ]
  %6 = tail call ptr @sqlite3_sql(ptr noundef nonnull %5) #18
  %7 = tail call i32 @sqlite3_stmt_busy(ptr noundef nonnull %5) #18
  %.not7 = icmp eq i32 %7, 0
  %8 = load i32, ptr getelementptr inbounds nuw (i8, ptr @darktable, i64 8), align 8, !tbaa !25
  %9 = and i32 %8, 256
  %.not8 = icmp eq i32 %9, 0
  br i1 %.not7, label %14, label %10

10:                                               ; preds = %.lr.ph
  br i1 %.not8, label %12, label %11

11:                                               ; preds = %10
  tail call void (ptr, ...) @dt_print_ext(ptr noundef nonnull @.str.82, ptr noundef %6) #18
  br label %12

12:                                               ; preds = %11, %10
  %13 = tail call i32 @sqlite3_reset(ptr noundef nonnull %5) #18
  br label %16

14:                                               ; preds = %.lr.ph
  br i1 %.not8, label %16, label %15

15:                                               ; preds = %14
  tail call void (ptr, ...) @dt_print_ext(ptr noundef nonnull @.str.83, ptr noundef %6) #18
  br label %16

16:                                               ; preds = %14, %15, %12
  %17 = tail call i32 @sqlite3_finalize(ptr noundef nonnull %5) #18
  %18 = load ptr, ptr %2, align 8, !tbaa !6
  %19 = tail call ptr @sqlite3_next_stmt(ptr noundef %18, ptr noundef null) #18
  %.not = icmp eq ptr %19, null
  br i1 %.not, label %._crit_edge, label %.lr.ph

._crit_edge:                                      ; preds = %16, %1
  ret void
}